target datalayout = "e-m:e-p270:32:32-p271:32:32-p272:64:64-i64:64-i128:128-f80:128-n8:16:32:64-S128"
target triple = "x86_64-pc-linux-gnu"

%"class.llvm::TargetInstrInfo" = type { ptr, %"class.llvm::MCInstrInfo.base", %"class.std::unique_ptr", i32, i32, i32, i32 }
%"class.llvm::MCInstrInfo.base" = type <{ ptr, ptr, ptr, ptr, ptr, i32 }>
%"class.std::unique_ptr" = type { %"struct.std::__uniq_ptr_data" }
%"struct.std::__uniq_ptr_data" = type { %"class.std::__uniq_ptr_impl" }
%"class.std::__uniq_ptr_impl" = type { %"class.std::tuple" }
%"class.std::tuple" = type { %"struct.std::_Tuple_impl" }
%"struct.std::_Tuple_impl" = type { %"struct.std::_Head_base.1" }
%"struct.std::_Head_base.1" = type { ptr }
%"class.llvm::RISCVInstrInfo" = type { %"struct.llvm::RISCVGenInstrInfo", ptr }
%"struct.llvm::RISCVGenInstrInfo" = type { %"class.llvm::TargetInstrInfo" }
%"class.llvm::TypeSize" = type { %"class.llvm::details::FixedOrScalableQuantity.base", [7 x i8] }
%"class.llvm::details::FixedOrScalableQuantity.base" = type <{ i64, i8 }>
%"class.llvm::LocationSize" = type { i64 }
%"class.llvm::details::FixedOrScalableQuantity" = type <{ i64, i8, [7 x i8] }>

; Function Attrs: mustprogress nounwind uwtable
define linkonce_odr hidden void @_ZN4llvm7details23FixedOrScalableQuantityINS_8TypeSizeEmEC2Emb(ptr noundef nonnull align 8 dereferenceable(9) %0, i64 noundef %1, i1 noundef zeroext %2) unnamed_addr #0 comdat align 2 {
  %4 = alloca ptr, align 8
  %5 = alloca i64, align 8
  %6 = alloca i8, align 1
  store ptr %0, ptr %4, align 8
  store i64 %1, ptr %5, align 8
  %7 = zext i1 %2 to i8
  store i8 %7, ptr %6, align 1
  %8 = load ptr, ptr %4, align 8
  %9 = getelementptr inbounds nuw %"class.llvm::details::FixedOrScalableQuantity", ptr %8, i32 0, i32 0
  %10 = load i64, ptr %5, align 8
  store i64 %10, ptr %9, align 8
  %11 = getelementptr inbounds nuw %"class.llvm::details::FixedOrScalableQuantity", ptr %8, i32 0, i32 1
  %12 = load i8, ptr %6, align 1
  %13 = trunc i8 %12 to i1
  %14 = zext i1 %13 to i8
  store i8 %14, ptr %11, align 8
  ret void
}

; Function Attrs: mustprogress nounwind uwtable
define linkonce_odr hidden void @_ZN4llvm8TypeSizeC2Emb(ptr noundef nonnull align 8 dereferenceable(9) %0, i64 noundef %1, i1 noundef zeroext %2) unnamed_addr #0 comdat align 2 {
  %4 = alloca ptr, align 8
  %5 = alloca i64, align 8
  %6 = alloca i8, align 1
  store ptr %0, ptr %4, align 8
  store i64 %1, ptr %5, align 8
  %7 = zext i1 %2 to i8
  store i8 %7, ptr %6, align 1
  %8 = load ptr, ptr %4, align 8
  %9 = load i64, ptr %5, align 8
  %10 = load i8, ptr %6, align 1
  %11 = trunc i8 %10 to i1
  call void @_ZN4llvm7details23FixedOrScalableQuantityINS_8TypeSizeEmEC2Emb(ptr noundef nonnull align 8 dereferenceable(9) %8, i64 noundef %9, i1 noundef zeroext %11)
  ret void
}

; Function Attrs: mustprogress nounwind uwtable
define linkonce_odr hidden noundef zeroext i1 @_ZNK4llvm12LocationSize10isScalableEv(ptr noundef nonnull align 8 dereferenceable(8) %0) #0 comdat align 2 {
  %2 = alloca ptr, align 8
  store ptr %0, ptr %2, align 8
  %3 = load ptr, ptr %2, align 8
  %4 = getelementptr inbounds nuw %"class.llvm::LocationSize", ptr %3, i32 0, i32 0
  %5 = load i64, ptr %4, align 8
  %6 = and i64 %5, 4611686018427387904
  %7 = icmp ne i64 %6, 0
  ret i1 %7
}

; Function Attrs: mustprogress nounwind uwtable
define linkonce_odr hidden { i64, i8 } @_ZNK4llvm12LocationSize8getValueEv(ptr noundef nonnull align 8 dereferenceable(8) %0) #0 comdat align 2 {
  %2 = alloca %"class.llvm::TypeSize", align 8
  %3 = alloca ptr, align 8
  store ptr %0, ptr %3, align 8
  %4 = load ptr, ptr %3, align 8
  %5 = getelementptr inbounds nuw %"class.llvm::LocationSize", ptr %4, i32 0, i32 0
  %6 = load i64, ptr %5, align 8
  %7 = and i64 %6, 4611686018427387903
  %8 = call noundef zeroext i1 @_ZNK4llvm12LocationSize10isScalableEv(ptr noundef nonnull align 8 dereferenceable(8) %4)
  call void @_ZN4llvm8TypeSizeC2Emb(ptr noundef nonnull align 8 dereferenceable(9) %2, i64 noundef %7, i1 noundef zeroext %8)
  %9 = load { i64, i8 }, ptr %2, align 8
  ret { i64, i8 } %9
}

; Function Attrs: mustprogress nounwind uwtable
define linkonce_odr hidden noundef zeroext i1 @_ZNK4llvm12LocationSize8hasValueEv(ptr noundef nonnull align 8 dereferenceable(8) %0) #0 comdat align 2 {
  %2 = alloca ptr, align 8
  store ptr %0, ptr %2, align 8
  %3 = load ptr, ptr %2, align 8
  %4 = getelementptr inbounds nuw %"class.llvm::LocationSize", ptr %3, i32 0, i32 0
  %5 = load i64, ptr %4, align 8
  %6 = icmp ne i64 %5, -4611686018427387906
  br i1 %6, label %7, label %11

7:                                                ; preds = %1
  %8 = getelementptr inbounds nuw %"class.llvm::LocationSize", ptr %3, i32 0, i32 0
  %9 = load i64, ptr %8, align 8
  %10 = icmp ne i64 %9, -1
  br label %11

11:                                               ; preds = %7, %1
  %12 = phi i1 [ false, %1 ], [ %10, %7 ]
  ret i1 %12
}

; Function Attrs: mustprogress nounwind uwtable
define linkonce_odr noundef nonnull align 8 dereferenceable(8) ptr @_ZSt3maxIlERKT_S2_S2_(ptr noundef nonnull align 8 dereferenceable(8) %0, ptr noundef nonnull align 8 dereferenceable(8) %1) #0 comdat {
  %3 = alloca ptr, align 8
  %4 = alloca ptr, align 8
  %5 = alloca ptr, align 8
  store ptr %0, ptr %4, align 8
  store ptr %1, ptr %5, align 8
  %6 = load ptr, ptr %4, align 8
  %7 = load i64, ptr %6, align 8
  %8 = load ptr, ptr %5, align 8
  %9 = load i64, ptr %8, align 8
  %10 = icmp slt i64 %7, %9
  br i1 %10, label %11, label %13

11:                                               ; preds = %2
  %12 = load ptr, ptr %5, align 8
  store ptr %12, ptr %3, align 8
  br label %15

13:                                               ; preds = %2
  %14 = load ptr, ptr %4, align 8
  store ptr %14, ptr %3, align 8
  br label %15

15:                                               ; preds = %13, %11
  %16 = load ptr, ptr %3, align 8
  ret ptr %16
}

; Function Attrs: mustprogress nounwind uwtable
define linkonce_odr noundef nonnull align 8 dereferenceable(8) ptr @_ZSt3minIlERKT_S2_S2_(ptr noundef nonnull align 8 dereferenceable(8) %0, ptr noundef nonnull align 8 dereferenceable(8) %1) #0 comdat {
  %3 = alloca ptr, align 8
  %4 = alloca ptr, align 8
  %5 = alloca ptr, align 8
  store ptr %0, ptr %4, align 8
  store ptr %1, ptr %5, align 8
  %6 = load ptr, ptr %5, align 8
  %7 = load i64, ptr %6, align 8
  %8 = load ptr, ptr %4, align 8
  %9 = load i64, ptr %8, align 8
  %10 = icmp slt i64 %7, %9
  br i1 %10, label %11, label %13

11:                                               ; preds = %2
  %12 = load ptr, ptr %5, align 8
  store ptr %12, ptr %3, align 8
  br label %15

13:                                               ; preds = %2
  %14 = load ptr, ptr %4, align 8
  store ptr %14, ptr %3, align 8
  br label %15

15:                                               ; preds = %13, %11
  %16 = load ptr, ptr %3, align 8
  ret ptr %16
}

; Function Attrs: mustprogress nounwind uwtable
define linkonce_odr hidden void @_ZN4llvm12LocationSizeC2Em(ptr noundef nonnull align 8 dereferenceable(8) %0, i64 noundef %1) unnamed_addr #0 comdat align 2 {
  %3 = alloca ptr, align 8
  %4 = alloca i64, align 8
  store ptr %0, ptr %3, align 8
  store i64 %1, ptr %4, align 8
  %5 = load ptr, ptr %3, align 8
  %6 = getelementptr inbounds nuw %"class.llvm::LocationSize", ptr %5, i32 0, i32 0
  %7 = load i64, ptr %4, align 8
  %8 = icmp ugt i64 %7, 4611686018427387899
  br i1 %8, label %9, label %10

9:                                                ; preds = %2
  br label %12

10:                                               ; preds = %2
  %11 = load i64, ptr %4, align 8
  br label %12

12:                                               ; preds = %10, %9
  %13 = phi i64 [ -4611686018427387906, %9 ], [ %11, %10 ]
  store i64 %13, ptr %6, align 8
  ret void
}

; Function Attrs: mustprogress nounwind uwtable
define dso_local noundef zeroext i1 @_ZNK4llvm14RISCVInstrInfo31areMemAccessesTriviallyDisjointERKNS_12MachineInstrES3_(ptr noundef nonnull align 8 dereferenceable(88) %0, ptr noundef nonnull align 8 dereferenceable(70) %1, ptr noundef nonnull align 8 dereferenceable(70) %2) unnamed_addr #0 align 2 {
  %4 = alloca i1, align 1
  %5 = alloca ptr, align 8
  %6 = alloca ptr, align 8
  %7 = alloca ptr, align 8
  %8 = alloca ptr, align 8
  %9 = alloca ptr, align 8
  %10 = alloca ptr, align 8
  %11 = alloca i64, align 8
  %12 = alloca i64, align 8
  %13 = alloca %"class.llvm::LocationSize", align 8
  %14 = alloca %"class.llvm::LocationSize", align 8
  %15 = alloca i32, align 4
  %16 = alloca i32, align 4
  %17 = alloca %"class.llvm::LocationSize", align 8
  %18 = alloca %"class.llvm::TypeSize", align 8
  %19 = alloca { i64, i8 }, align 8
  store ptr %0, ptr %5, align 8
  store ptr %1, ptr %6, align 8
  store ptr %2, ptr %7, align 8
  %20 = load ptr, ptr %5, align 8
  %21 = load ptr, ptr %6, align 8
  %22 = call noundef zeroext i1 @_ZNK4llvm12MachineInstr23hasUnmodeledSideEffectsEv(ptr noundef nonnull align 8 dereferenceable(70) %21)
  br i1 %22, label %32, label %23

23:                                               ; preds = %3
  %24 = load ptr, ptr %7, align 8
  %25 = call noundef zeroext i1 @_ZNK4llvm12MachineInstr23hasUnmodeledSideEffectsEv(ptr noundef nonnull align 8 dereferenceable(70) %24)
  br i1 %25, label %32, label %26

26:                                               ; preds = %23
  %27 = load ptr, ptr %6, align 8
  %28 = call noundef zeroext i1 @_ZNK4llvm12MachineInstr19hasOrderedMemoryRefEv(ptr noundef nonnull align 8 dereferenceable(70) %27)
  br i1 %28, label %32, label %29

29:                                               ; preds = %26
  %30 = load ptr, ptr %7, align 8
  %31 = call noundef zeroext i1 @_ZNK4llvm12MachineInstr19hasOrderedMemoryRefEv(ptr noundef nonnull align 8 dereferenceable(70) %30)
  br i1 %31, label %32, label %33

32:                                               ; preds = %29, %26, %23, %3
  store i1 false, ptr %4, align 1
  br label %81

33:                                               ; preds = %29
  %34 = getelementptr inbounds nuw %"class.llvm::RISCVInstrInfo", ptr %20, i32 0, i32 1
  %35 = load ptr, ptr %34, align 8
  %36 = load ptr, ptr %35, align 8
  %37 = getelementptr inbounds ptr, ptr %36, i64 25
  %38 = load ptr, ptr %37, align 8
  %39 = call noundef ptr %38(ptr noundef nonnull align 8 dereferenceable(409192) %35)
  store ptr %39, ptr %8, align 8
  store ptr null, ptr %9, align 8
  store ptr null, ptr %10, align 8
  store i64 0, ptr %11, align 8
  store i64 0, ptr %12, align 8
  call void @_ZN4llvm12LocationSizeC2Em(ptr noundef nonnull align 8 dereferenceable(8) %13, i64 noundef 0)
  call void @_ZN4llvm12LocationSizeC2Em(ptr noundef nonnull align 8 dereferenceable(8) %14, i64 noundef 0)
  %40 = load ptr, ptr %6, align 8
  %41 = load ptr, ptr %8, align 8
  %42 = call noundef zeroext i1 @_ZNK4llvm14RISCVInstrInfo28getMemOperandWithOffsetWidthERKNS_12MachineInstrERPKNS_14MachineOperandERlRNS_12LocationSizeEPKNS_18TargetRegisterInfoE(ptr noundef nonnull align 8 dereferenceable(88) %20, ptr noundef nonnull align 8 dereferenceable(70) %40, ptr noundef nonnull align 8 dereferenceable(8) %9, ptr noundef nonnull align 8 dereferenceable(8) %11, ptr noundef nonnull align 8 dereferenceable(8) %13, ptr noundef %41)
  br i1 %42, label %43, label %80

43:                                               ; preds = %33
  %44 = load ptr, ptr %7, align 8
  %45 = load ptr, ptr %8, align 8
  %46 = call noundef zeroext i1 @_ZNK4llvm14RISCVInstrInfo28getMemOperandWithOffsetWidthERKNS_12MachineInstrERPKNS_14MachineOperandERlRNS_12LocationSizeEPKNS_18TargetRegisterInfoE(ptr noundef nonnull align 8 dereferenceable(88) %20, ptr noundef nonnull align 8 dereferenceable(70) %44, ptr noundef nonnull align 8 dereferenceable(8) %10, ptr noundef nonnull align 8 dereferenceable(8) %12, ptr noundef nonnull align 8 dereferenceable(8) %14, ptr noundef %45)
  br i1 %46, label %47, label %80

47:                                               ; preds = %43
  %48 = load ptr, ptr %9, align 8
  %49 = load ptr, ptr %10, align 8
  %50 = call noundef zeroext i1 @_ZNK4llvm14MachineOperand13isIdenticalToERKS0_(ptr noundef nonnull align 8 dereferenceable(32) %48, ptr noundef nonnull align 8 dereferenceable(32) %49)
  br i1 %50, label %51, label %79

51:                                               ; preds = %47
  %52 = call noundef nonnull align 8 dereferenceable(8) ptr @_ZSt3minIlERKT_S2_S2_(ptr noundef nonnull align 8 dereferenceable(8) %11, ptr noundef nonnull align 8 dereferenceable(8) %12)
  %53 = load i64, ptr %52, align 8
  %54 = trunc i64 %53 to i32
  store i32 %54, ptr %15, align 4
  %55 = call noundef nonnull align 8 dereferenceable(8) ptr @_ZSt3maxIlERKT_S2_S2_(ptr noundef nonnull align 8 dereferenceable(8) %11, ptr noundef nonnull align 8 dereferenceable(8) %12)
  %56 = load i64, ptr %55, align 8
  %57 = trunc i64 %56 to i32
  store i32 %57, ptr %16, align 4
  %58 = load i32, ptr %15, align 4
  %59 = sext i32 %58 to i64
  %60 = load i64, ptr %11, align 8
  %61 = icmp eq i64 %59, %60
  br i1 %61, label %62, label %63

62:                                               ; preds = %51
  br label %64

63:                                               ; preds = %51
  br label %64

64:                                               ; preds = %63, %62
  %65 = phi ptr [ %13, %62 ], [ %14, %63 ]
  call void @llvm.memcpy.p0.p0.i64(ptr align 8 %17, ptr align 8 %65, i64 8, i1 false)
  %66 = call noundef zeroext i1 @_ZNK4llvm12LocationSize8hasValueEv(ptr noundef nonnull align 8 dereferenceable(8) %17)
  br i1 %66, label %67, label %75

67:                                               ; preds = %64
  %68 = load i32, ptr %15, align 4
  %69 = call { i64, i8 } @_ZNK4llvm12LocationSize8getValueEv(ptr noundef nonnull align 8 dereferenceable(8) %17)
  store { i64, i8 } %69, ptr %19, align 8
  call void @llvm.memcpy.p0.p0.i64(ptr align 8 %18, ptr align 8 %19, i64 9, i1 false)
  %70 = call noundef i64 @_ZNK4llvm8TypeSizecvmEv(ptr noundef nonnull align 8 dereferenceable(9) %18)
  %71 = trunc i64 %70 to i32
  %72 = add nsw i32 %68, %71
  %73 = load i32, ptr %16, align 4
  %74 = icmp sle i32 %72, %73
  br label %75

75:                                               ; preds = %67, %64
  %76 = phi i1 [ false, %64 ], [ %74, %67 ]
  br i1 %76, label %77, label %78

77:                                               ; preds = %75
  store i1 true, ptr %4, align 1
  br label %81

78:                                               ; preds = %75
  br label %79

79:                                               ; preds = %78, %47
  br label %80

80:                                               ; preds = %79, %43, %33
  store i1 false, ptr %4, align 1
  br label %81

81:                                               ; preds = %80, %77, %32
  %82 = load i1, ptr %4, align 1
  ret i1 %82
}