; Function Attrs: mustprogress nounwind uwtable
define dso_local noundef zeroext i1 @_ZNK4llvm14RISCVInstrInfo31areMemAccessesTriviallyDisjointERKNS_12MachineInstrES3_(ptr nocapture noundef nonnull readonly align 8 dereferenceable(88) %0, ptr noundef nonnull align 8 dereferenceable(70) %1, ptr noundef nonnull align 8 dereferenceable(70) %2) unnamed_addr #2 align 2 {
  %4 = alloca ptr, align 8
  %5 = alloca ptr, align 8
  %6 = alloca i64, align 8
  %7 = alloca i64, align 8
  %8 = alloca %"class.llvm::LocationSize", align 8
  %9 = alloca %"class.llvm::LocationSize", align 8
  %10 = alloca %"class.llvm::TypeSize", align 8
  %11 = tail call noundef zeroext i1 @_ZNK4llvm12MachineInstr23hasUnmodeledSideEffectsEv(ptr noundef nonnull align 8 dereferenceable(70) %1) #25
  br i1 %11, label %50, label %12

12:                                               ; preds = %3
  %13 = tail call noundef zeroext i1 @_ZNK4llvm12MachineInstr23hasUnmodeledSideEffectsEv(ptr noundef nonnull align 8 dereferenceable(70) %2) #25
  br i1 %13, label %50, label %14

14:                                               ; preds = %12
  %15 = tail call noundef zeroext i1 @_ZNK4llvm12MachineInstr19hasOrderedMemoryRefEv(ptr noundef nonnull align 8 dereferenceable(70) %1) #25
  br i1 %15, label %50, label %16

16:                                               ; preds = %14
  %17 = tail call noundef zeroext i1 @_ZNK4llvm12MachineInstr19hasOrderedMemoryRefEv(ptr noundef nonnull align 8 dereferenceable(70) %2) #25
  br i1 %17, label %50, label %18

18:                                               ; preds = %16
  %19 = getelementptr inbounds nuw i8, ptr %0, i64 80
  %20 = load ptr, ptr %19, align 8
  %21 = load ptr, ptr %20, align 8
  %22 = getelementptr inbounds i8, ptr %21, i64 200
  %23 = load ptr, ptr %22, align 8
  %24 = tail call noundef ptr %23(ptr noundef nonnull align 8 dereferenceable(409192) %20) #25
  store ptr null, ptr %4, align 8
  store ptr null, ptr %5, align 8
  store i64 0, ptr %6, align 8
  store i64 0, ptr %7, align 8
  store i64 0, ptr %8, align 8
  store i64 0, ptr %9, align 8
  %25 = call noundef zeroext i1 @_ZNK4llvm14RISCVInstrInfo28getMemOperandWithOffsetWidthERKNS_12MachineInstrERPKNS_14MachineOperandERlRNS_12LocationSizeEPKNS_18TargetRegisterInfoE(ptr nonnull align 8 poison, ptr noundef nonnull align 8 dereferenceable(70) %1, ptr noundef nonnull align 8 dereferenceable(8) %4, ptr noundef nonnull align 8 dereferenceable(8) %6, ptr noundef nonnull align 8 dereferenceable(8) %8, ptr poison)
  br i1 %25, label %26, label %.critedge

26:                                               ; preds = %18
  %27 = call noundef zeroext i1 @_ZNK4llvm14RISCVInstrInfo28getMemOperandWithOffsetWidthERKNS_12MachineInstrERPKNS_14MachineOperandERlRNS_12LocationSizeEPKNS_18TargetRegisterInfoE(ptr nonnull align 8 poison, ptr noundef nonnull align 8 dereferenceable(70) %2, ptr noundef nonnull align 8 dereferenceable(8) %5, ptr noundef nonnull align 8 dereferenceable(8) %7, ptr noundef nonnull align 8 dereferenceable(8) %9, ptr poison)
  br i1 %27, label %28, label %.critedge

28:                                               ; preds = %26
  %29 = load ptr, ptr %4, align 8
  %30 = load ptr, ptr %5, align 8
  %31 = tail call noundef zeroext i1 @_ZNK4llvm14MachineOperand13isIdenticalToERKS0_(ptr noundef nonnull align 8 dereferenceable(32) %29, ptr noundef nonnull align 8 dereferenceable(32) %30) #25
  br i1 %31, label %32, label %.critedge

32:                                               ; preds = %28
  %33 = load i64, ptr %7, align 8
  %34 = load i64, ptr %6, align 8
  %35 = tail call i64 @llvm.smin.i64(i64 %33, i64 %34)
  %sext = shl i64 %35, 32
  %36 = ashr exact i64 %sext, 32
  %37 = icmp eq i64 %36, %34
  %.val = load i64, ptr %8, align 8
  %.val12 = load i64, ptr %9, align 8
  %38 = select i1 %37, i64 %.val, i64 %.val12
  switch i64 %38, label %39 [
    i64 -1, label %.critedge
    i64 -4611686018427387906, label %.critedge
  ]

39:                                               ; preds = %32
  %40 = tail call i64 @llvm.smax.i64(i64 %34, i64 %33)
  %41 = trunc i64 %35 to i32
  %42 = trunc i64 %40 to i32
  %43 = and i64 %38, 4611686018427387903
  %44 = lshr i64 %38, 62
  %45 = trunc nuw nsw i64 %44 to i8
  %46 = and i8 %45, 1
  store i64 %43, ptr %10, align 8
  %.sroa.2.0..sroa_idx = getelementptr inbounds i8, ptr %10, i64 8
  store i8 %46, ptr %.sroa.2.0..sroa_idx, align 8
  %47 = call noundef i64 @_ZNK4llvm8TypeSizecvmEv(ptr noundef nonnull align 8 dereferenceable(9) %10) #25
  %48 = trunc i64 %47 to i32
  %49 = add nsw i32 %48, %41
  %.not = icmp sgt i32 %49, %42
  br i1 %.not, label %.critedge, label %50

.critedge:                                        ; preds = %32, %32, %28, %39, %26, %18
  br label %50

50:                                               ; preds = %39, %3, %12, %14, %16, %.critedge
  %.0 = phi i1 [ false, %.critedge ], [ false, %16 ], [ false, %14 ], [ false, %12 ], [ false, %3 ], [ true, %39 ]
  ret i1 %.0
}